target datalayout = "e-m:e-p270:32:32-p271:32:32-p272:64:64-i64:64-i128:128-f80:128-n8:16:32:64-S128"
target triple = "x86_64-pc-linux-gnu"

; Function Attrs: nounwind uwtable
define internal ptr @getWindowImage(ptr noundef %0, i64 noundef %1, i32 noundef %2, i32 noundef %3, i32 noundef %4, i32 noundef %5) #0 {
  %7 = alloca ptr, align 8
  %8 = alloca i64, align 8
  %9 = alloca i32, align 4
  %10 = alloca i32, align 4
  %11 = alloca i32, align 4
  %12 = alloca i32, align 4
  %13 = alloca ptr, align 8
  %14 = alloca i32, align 4
  %15 = alloca i32, align 4
  %16 = alloca ptr, align 8
  %17 = alloca i32, align 4
  %18 = alloca ptr, align 8
  %19 = alloca i32, align 4
  %20 = alloca ptr, align 8
  %21 = alloca ptr, align 8
  %22 = alloca ptr, align 8
  %23 = alloca i32, align 4
  %24 = alloca i32, align 4
  store ptr %0, ptr %7, align 8
  store i64 %1, ptr %8, align 8
  store i32 %2, ptr %9, align 4
  store i32 %3, ptr %10, align 4
  store i32 %4, ptr %11, align 4
  store i32 %5, ptr %12, align 4
  store i32 0, ptr %23, align 4
  store i32 2, ptr %24, align 4
  %25 = load ptr, ptr %7, align 8
  %26 = call i32 @XGrabServer(ptr noundef %25)
  %27 = load ptr, ptr %7, align 8
  %28 = load i64, ptr %8, align 8
  %29 = load i32, ptr %9, align 4
  %30 = load i32, ptr %10, align 4
  %31 = load i32, ptr %11, align 4
  %32 = load i32, ptr %12, align 4
  %33 = call i32 @GetMultiVisualRegions(ptr noundef %27, i64 noundef %28, i32 noundef %29, i32 noundef %30, i32 noundef %31, i32 noundef %32, ptr noundef %14, ptr noundef %15, ptr noundef %16, ptr noundef %17, ptr noundef %18, ptr noundef %19, ptr noundef %20, ptr noundef %21, ptr noundef %22, ptr noundef %23)
  %34 = load ptr, ptr %7, align 8
  %35 = load i64, ptr %8, align 8
  %36 = load i32, ptr %9, align 4
  %37 = load i32, ptr %10, align 4
  %38 = load i32, ptr %11, align 4
  %39 = load i32, ptr %12, align 4
  %40 = load i32, ptr %15, align 4
  %41 = load ptr, ptr %16, align 8
  %42 = load i32, ptr %17, align 4
  %43 = load ptr, ptr %18, align 8
  %44 = load i32, ptr %19, align 4
  %45 = load ptr, ptr %20, align 8
  %46 = load ptr, ptr %21, align 8
  %47 = load ptr, ptr %22, align 8
  %48 = load i32, ptr %24, align 4
  %49 = load i32, ptr %23, align 4
  %50 = call ptr @ReadAreaToImage(ptr noundef %34, i64 noundef %35, i32 noundef %36, i32 noundef %37, i32 noundef %38, i32 noundef %39, i32 noundef %40, ptr noundef %41, i32 noundef %42, ptr noundef %43, i32 noundef %44, ptr noundef %45, ptr noundef %46, ptr noundef %47, i32 noundef %48, i32 noundef %49)
  store ptr %50, ptr %13, align 8
  %51 = load ptr, ptr %7, align 8
  %52 = call i32 @XUngrabServer(ptr noundef %51)
  %53 = load ptr, ptr %7, align 8
  %54 = call i32 @XSync(ptr noundef %53, i32 noundef 0)
  %55 = load ptr, ptr %13, align 8
  ret ptr %55
}